(lp0
(dp1
I10000
(dp2
S'rad_sum'
p3
F4726.0780849820385
sS'rad_medium'
p4
F16562.35120476006
sS'rad_mean'
p5
cnumpy.core.multiarray
scalar
p6
(cnumpy
dtype
p7
(S'f8'
p8
I0
I1
tp9
Rp10
(I3
S'<'
p11
NNNI-1
I-1
I0
tp12
bS'\xe5\x1a\xea\xf4\xc7_\xcc@'
p13
tp14
Rp15
ssS'sketch'
p16
S'cs'
p17
sI1000
(dp18
g3
F5764.857814366982
sg4
F16585.59045852494
sg5
g6
(g10
S'-\x99\xf9\x03\xd5u\xcc@'
p19
tp20
Rp21
ssS'h'
p22
I300
sI2000
(dp23
g3
F5935.719397061736
sg4
F16557.299302349344
sg5
g6
(g10
S'\xbe=\x17i\xa2b\xcc@'
p24
tp25
Rp26
ssI5000
(dp27
g3
F3845.6978983567724
sg4
F16578.194523000013
sg5
g6
(g10
S'\xd5\x1e\x9c\x0f\xe7p\xcc@'
p28
tp29
Rp30
ssI500
(dp31
g3
F6353.89259824378
sg4
F16563.033781000013
sg5
g6
(g10
S'\x1e\x172\xbf\x05N\xcc@'
p32
tp33
Rp34
ssS'w'
p35
I10
sS'ds'
p36
S'comp1'
p37
sa(dp38
I10000
(dp39
g3
F4582.4120256441565
sg4
F16015.168334999998
sg5
g6
(g10
S'P\xbb9\x105\x80\xcb@'
p40
tp41
Rp42
ssg16
S'gm'
p43
sI1000
(dp44
g3
F5589.29184202782
sg4
F16043.778751000005
sg5
g6
(g10
S'\x88hvEM\x9a\xcb@'
p45
tp46
Rp47
ssg22
I300
sI2000
(dp48
g3
F5751.156091209768
sg4
F15980.875358999998
sg5
g6
(g10
S'&vuH\x87\x80\xcb@'
p49
tp50
Rp51
ssI5000
(dp52
g3
F3727.2512354364117
sg4
F16037.723793999981
sg5
g6
(g10
S'\xfe\xea\xcf\xf5\xfa\x8d\xcb@'
p53
tp54
Rp55
ssI500
(dp56
g3
F6175.082264742801
sg4
F16052.437501328954
sg5
g6
(g10
S'\xf2Qcx\xa7\x80\xcb@'
p57
tp58
Rp59
ssg35
I10
sg36
g37
sa.