(lp0
(dp1
I10000
(dp2
S'rad_sum'
p3
F93.33059077682546
sS'rad_medium'
p4
F165.2
sS'rad_mean'
p5
cnumpy.core.multiarray
scalar
p6
(cnumpy
dtype
p7
(S'f8'
p8
I0
I1
tp9
Rp10
(I3
S'<'
p11
NNNI-1
I-1
I0
tp12
bS'\x96\xce\x87\x96\xb3,b@'
p13
tp14
Rp15
ssS'sketch'
p16
S'cs'
p17
sI1000
(dp18
g3
F92.60766255389584
sg4
F165.2
sg5
g6
(g10
S'$\xdc;\xdb\x9b+b@'
p19
tp20
Rp21
ssS'h'
p22
I500
sI2000
(dp23
g3
F94.4127589230439
sg4
F165.0
sg5
g6
(g10
S'\x0e\x8f\x1a?\xe11b@'
p24
tp25
Rp26
ssI5000
(dp27
g3
F94.33245854156283
sg4
F165.0
sg5
g6
(g10
S'Z\xb3\xe9\x8a;)b@'
p28
tp29
Rp30
ssI500
(dp31
g3
F94.67210275699028
sg4
F165.8
sg5
g6
(g10
S'\x8e\xc4g\xb1\x9a@b@'
p32
tp33
Rp34
ssS'w'
p35
I10
sS'ds'
p36
S'tweet'
p37
sa(dp38
I10000
(dp39
g3
F92.81651771384085
sg4
F155.0
sg5
g6
(g10
S'f\xac8J\xad\x1bb@'
p40
tp41
Rp42
ssg16
S'gm'
p43
sI1000
(dp44
g3
F91.48076496406955
sg4
F155.8
sg5
g6
(g10
S'b\xb4!\xff:\x01b@'
p45
tp46
Rp47
ssg22
I500
sI2000
(dp48
g3
F93.73779004752006
sg4
F155.6
sg5
g6
(g10
S'k\x94%\x87~$b@'
p49
tp50
Rp51
ssI5000
(dp52
g3
F93.38469671765736
sg4
F155.0
sg5
g6
(g10
S'\xed\xa0\xf9$\xc5\x05b@'
p53
tp54
Rp55
ssI500
(dp56
g3
F93.71469571915065
sg4
F155.3
sg5
g6
(g10
S'd\xcd\x9e\x1f\x0b\x14b@'
p57
tp58
Rp59
ssg35
I10
sg36
g37
sa.