(lp0
(dp1
I10000
(dp2
S'rad_sum'
p3
F1090.7945299363143
sS'rad_medium'
p4
F5243.212740000002
sS'rad_mean'
p5
cnumpy.core.multiarray
scalar
p6
(cnumpy
dtype
p7
(S'f8'
p8
I0
I1
tp9
Rp10
(I3
S'<'
p11
NNNI-1
I-1
I0
tp12
bS'\xce\xfb\x91\x946\x0c\xb2@'
p13
tp14
Rp15
ssS'sketch'
p16
S'cs'
p17
sI1000
(dp18
g3
F1390.994128664363
sg4
F5253.034224492833
sg5
g6
(g10
S'}\xf9\x1a\xf1\xbb=\xb2@'
p19
tp20
Rp21
ssS'h'
p22
I500
sI2000
(dp23
g3
F1441.601999351884
sg4
F5232.996946999998
sg5
g6
(g10
S'\x86\xb3\xc5\xa8\xc9\x16\xb2@'
p24
tp25
Rp26
ssI5000
(dp27
g3
F1440.256671964195
sg4
F5241.345181
sg5
g6
(g10
S'\xbaJ\xb2\xc3O\x0e\xb2@'
p28
tp29
Rp30
ssI500
(dp31
g3
F1961.9099296593456
sg4
F5244.102660496617
sg5
g6
(g10
S'\x8e\x19=\x0b\xfd$\xb2@'
p32
tp33
Rp34
ssS'w'
p35
I10
sS'ds'
p36
S'comp1'
p37
sa(dp38
I10000
(dp39
g3
F1058.6610113197537
sg4
F5070.988418
sg5
g6
(g10
S'\x06v\xba\x15;\x84\xb1@'
p40
tp41
Rp42
ssg16
S'gm'
p43
sI1000
(dp44
g3
F1347.561812040762
sg4
F5071.630166770316
sg5
g6
(g10
S'\xa2\xfc\xe4\x81m\xab\xb1@'
p45
tp46
Rp47
ssg22
I500
sI2000
(dp48
g3
F1397.8602544982182
sg4
F5066.2684248668775
sg5
g6
(g10
S'\xd4:\xfb\x1a)\x8d\xb1@'
p49
tp50
Rp51
ssI5000
(dp52
g3
F1396.088806530309
sg4
F5067.423619155423
sg5
g6
(g10
S'\xe7\xa9i\x9a\xc8\x7f\xb1@'
p53
tp54
Rp55
ssI500
(dp56
g3
F1913.8688022692077
sg4
F5092.963208875679
sg5
g6
(g10
S'=\x0e\\\xc2/\xb5\xb1@'
p57
tp58
Rp59
ssg35
I10
sg36
g37
sa.