(lp0
(dp1
I10000
(dp2
S'rad_sum'
p3
F141.15055999999998
sS'rad_medium'
p4
F141.6
sS'rad_mean'
p5
cnumpy.core.multiarray
scalar
p6
(cnumpy
dtype
p7
(S'f8'
p8
I0
I1
tp9
Rp10
(I3
S'<'
p11
NNNI-1
I-1
I0
tp12
bS'\xbe\x824c\xd1\xa4a@'
p13
tp14
Rp15
ssS'sketch'
p16
S'cs'
p17
sI1000
(dp18
g3
F141.16240000000002
sg4
F141.6
sg5
g6
(g10
S'\xdb\x1b|a2\xa5a@'
p19
tp20
Rp21
ssS'h'
p22
I1000
sI2000
(dp23
g3
F141.0763
sg4
F141.6
sg5
g6
(g10
S'\xea\x95\xb2\x0cq\xa2a@'
p24
tp25
Rp26
ssI5000
(dp27
g3
F141.15032
sg4
F141.8
sg5
g6
(g10
S'\xe9}\xe3k\xcf\xa4a@'
p28
tp29
Rp30
ssI500
(dp31
g3
F141.1808
sg4
F141.4
sg5
g6
(g10
S'\xbd\xe3\x14\x1d\xc9\xa5a@'
p32
tp33
Rp34
ssS'w'
p35
I10
sS'ds'
p36
S'tr_1_4ij'
p37
sa(dp38
I10000
(dp39
g3
F3414.8031199999996
sg4
F361.0
sg5
g6
(g10
S'\x86m\x8b2\x9b\xad\xaa@'
p40
tp41
Rp42
ssg16
S'gm'
p43
sI1000
(dp44
g3
F3469.4060000000004
sg4
F406.5
sg5
g6
(g10
S'[d;\xdf\xcf\x1a\xab@'
p45
tp46
Rp47
ssg22
I1000
sI2000
(dp48
g3
F3394.1456999999996
sg4
F360.1
sg5
g6
(g10
S'\r\xbe0\x99J\x84\xaa@'
p49
tp50
Rp51
ssI5000
(dp52
g3
F3443.42724
sg4
F384.1
sg5
g6
(g10
S'\x16\x873\xbf\xda\xe6\xaa@'
p53
tp54
Rp55
ssI500
(dp56
g3
F3395.0188000000003
sg4
F364.3
sg5
g6
(g10
S"UR'\xa0\t\x86\xaa@"
p57
tp58
Rp59
ssg35
I10
sg36
g37
sa.