(lp0
(dp1
I10000
(dp2
S'rad_sum'
p3
F265.1794088665368
sS'rad_medium'
p4
F1065.469586
sS'rad_mean'
p5
cnumpy.core.multiarray
scalar
p6
(cnumpy
dtype
p7
(S'f8'
p8
I0
I1
tp9
Rp10
(I3
S'<'
p11
NNNI-1
I-1
I0
tp12
bS'\xb6\x89\xdf*\x0b\xa7\x8d@'
p13
tp14
Rp15
ssS'sketch'
p16
S'cs'
p17
sI1000
(dp18
g3
F439.51706476534935
sg4
F1065.2574858523924
sg5
g6
(g10
S'\xd0\xe0*2\xb8\xcc\x8d@'
p19
tp20
Rp21
ssS'h'
p22
I1000
sI2000
(dp23
g3
F349.68204809628395
sg4
F1069.0968986329226
sg5
g6
(g10
S'\x9d\x19H\x186\xd7\x8d@'
p24
tp25
Rp26
ssI5000
(dp27
g3
F369.5174403198653
sg4
F1066.1725338286888
sg5
g6
(g10
S'\x13\xa6!NU\xb0\x8d@'
p28
tp29
Rp30
ssI500
(dp31
g3
F306.96504413364494
sg4
F1068.145722
sg5
g6
(g10
S'fM\rk\xcf\xc9\x8d@'
p32
tp33
Rp34
ssS'w'
p35
I10
sS'ds'
p36
S'comp1'
p37
sa(dp38
I10000
(dp39
g3
F259.71023110869413
sg4
F1040.380441
sg5
g6
(g10
S'b\x8601d\x05\x8d@'
p40
tp41
Rp42
ssg16
S'gm'
p43
sI1000
(dp44
g3
F429.86199595763503
sg4
F1040.553064
sg5
g6
(g10
S"fEO\x9c\xa9'\x8d@"
p45
tp46
Rp47
ssg22
I1000
sI2000
(dp48
g3
F342.32951757391
sg4
F1042.968113350414
sg5
g6
(g10
S"\x93\xbd\x94Z\x15'\x8d@"
p49
tp50
Rp51
ssI5000
(dp52
g3
F361.98254582893543
sg4
F1038.603052
sg5
g6
(g10
S'\x8b\xce\xedt\xa5\x0b\x8d@'
p53
tp54
Rp55
ssI500
(dp56
g3
F301.84659951906946
sg4
F1046.5543052202206
sg5
g6
(g10
S'\xcaH\xbe\xb6\x97F\x8d@'
p57
tp58
Rp59
ssg35
I10
sg36
g37
sa.