(lp0
(dp1
I10000
(dp2
S'rad_sum'
p3
F17.820420134521818
sS'rad_medium'
p4
F31.0
sS'rad_mean'
p5
cnumpy.core.multiarray
scalar
p6
(cnumpy
dtype
p7
(S'f8'
p8
I0
I1
tp9
Rp10
(I3
S'<'
p11
NNNI-1
I-1
I0
tp12
bS'\xf5\xcc\x8a\x1254<@'
p13
tp14
Rp15
ssS'sketch'
p16
S'cs'
p17
sI1000
(dp18
g3
F17.9075961675589
sg4
F30.6
sg5
g6
(g10
S'\xfdj\x94\xc4\xb4\xfa;@'
p19
tp20
Rp21
ssS'h'
p22
I1000
sI2000
(dp23
g3
F17.89341535089019
sg4
F31.0
sg5
g6
(g10
S'X\xf1\xb6\xbc\xe4,<@'
p24
tp25
Rp26
ssI5000
(dp27
g3
F17.64717044087167
sg4
F31.0
sg5
g6
(g10
S'B\xa0|\xf1K\x0e<@'
p28
tp29
Rp30
ssI500
(dp31
g3
F19.472075577553678
sg4
F31.0
sg5
g6
(g10
S'\xaa\xf6\xcdq\xdep<@'
p32
tp33
Rp34
ssS'w'
p35
I10
sS'ds'
p36
S'tweet'
p37
sa(dp38
I10000
(dp39
g3
F19.00422857493151
sg4
F29.0
sg5
g6
(g10
S'0\xc0\xc16iA>@'
p40
tp41
Rp42
ssg16
S'gm'
p43
sI1000
(dp44
g3
F19.267380776509963
sg4
F28.8
sg5
g6
(g10
S'"6:\x80\xd6a>@'
p45
tp46
Rp47
ssg22
I1000
sI2000
(dp48
g3
F18.948904963811543
sg4
F28.8
sg5
g6
(g10
S'\x03\xa6g\x16\x16\xf3=@'
p49
tp50
Rp51
ssI5000
(dp52
g3
F18.575077319671045
sg4
F29.0
sg5
g6
(g10
S'6\xc4\x84[X\xa6=@'
p53
tp54
Rp55
ssI500
(dp56
g3
F20.827245671761393
sg4
F29.2
sg5
g6
(g10
S'\xe6\xff$Q\xefv>@'
p57
tp58
Rp59
ssg35
I10
sg36
g37
sa.