(lp0
(dp1
I10000
(dp2
S'rad_sum'
p3
F284.26093186873584
sS'rad_medium'
p4
F517.4
sS'rad_mean'
p5
cnumpy.core.multiarray
scalar
p6
(cnumpy
dtype
p7
(S'f8'
p8
I0
I1
tp9
Rp10
(I3
S'<'
p11
NNNI-1
I-1
I0
tp12
bS'\x9b\xe5\x05\xc6B\x0f|@'
p13
tp14
Rp15
ssS'sketch'
p16
S'cs'
p17
sI1000
(dp18
g3
F306.35964655529125
sg4
F517.0
sg5
g6
(g10
S'\x15\xbc\xf7\xacJ\xfc{@'
p19
tp20
Rp21
ssS'h'
p22
I300
sI2000
(dp23
g3
F295.2731936185684
sg4
F517.7
sg5
g6
(g10
S'\xe8\x9d\n> (|@'
p24
tp25
Rp26
ssI5000
(dp27
g3
F284.2904756653204
sg4
F517.2
sg5
g6
(g10
S'\xbd \xb8W{\x06|@'
p28
tp29
Rp30
ssI500
(dp31
g3
F269.2379654771014
sg4
F514.8
sg5
g6
(g10
S'\xa0\xe8\x80>:\xce{@'
p32
tp33
Rp34
ssS'w'
p35
I10
sS'ds'
p36
S'tweet'
p37
sa(dp38
I10000
(dp39
g3
F278.1958981674235
sg4
F488.7666666666667
sg5
g6
(g10
S'\x86\x95\xae\xca\xdc\x82{@'
p40
tp41
Rp42
ssg16
S'gm'
p43
sI1000
(dp44
g3
F300.73447572223057
sg4
F487.9
sg5
g6
(g10
S'(\xe3\xbe\x95+\x83{@'
p45
tp46
Rp47
ssg22
I300
sI2000
(dp48
g3
F289.14158210406777
sg4
F488.8
sg5
g6
(g10
S'u\xe5\x13a\x13\x9d{@'
p49
tp50
Rp51
ssI5000
(dp52
g3
F278.5382864861404
sg4
F487.8
sg5
g6
(g10
S'#n\x11\x8f\xe3\x82{@'
p53
tp54
Rp55
ssI500
(dp56
g3
F263.820888633116
sg4
F487.0
sg5
g6
(g10
S'\xe6zM5\xe2T{@'
p57
tp58
Rp59
ssg35
I10
sg36
g37
sa.