(lp0
(dp1
S'sketch'
p2
S'cs'
p3
sI100
(dp4
S'top_sum'
p5
F142.38
sS'top_medium'
p6
F143.0
sS'top_mean'
p7
cnumpy.core.multiarray
scalar
p8
(cnumpy
dtype
p9
(S'f8'
p10
I0
I1
tp11
Rp12
(I3
S'<'
p13
NNNI-1
I-1
I0
tp14
bS'\\\x8f\xc2\xf5(\xcca@'
p15
tp16
Rp17
ssI1000
(dp18
g5
F141.363
sg6
F142.0
sg7
g8
(g12
S'V\x0e-\xb2\x9d\xaba@'
p19
tp20
Rp21
ssS'h'
p22
I1000
sI2000
(dp23
g5
F141.049
sg6
F142.0
sg7
g8
(g12
S'!\xb0rh\x91\xa1a@'
p24
tp25
Rp26
ssI5000
(dp27
g5
F141.1712
sg6
F142.0
sg7
g8
(g12
S'h"lxz\xa5a@'
p28
tp29
Rp30
ssI500
(dp31
g5
F141.15
sg6
F142.0
sg7
g8
(g12
S'\xcd\xcc\xcc\xcc\xcc\xa4a@'
p32
tp33
Rp34
ssS'w'
p35
I10
sS'ds'
p36
S'tr_1_4ij'
p37
sa(dp38
g2
S'gm'
p39
sI100
(dp40
g5
F3623.67
sg6
F354.5
sg7
g8
(g12
S'\xa4p=\nWO\xac@'
p41
tp42
Rp43
ssI1000
(dp44
g5
F3396.703
sg6
F367.0
sg7
g8
(g12
S'-\xb2\x9d\xefg\x89\xaa@'
p45
tp46
Rp47
ssg22
I1000
sI2000
(dp48
g5
F3376.095
sg6
F366.5
sg7
g8
(g12
S'=\n\xd7\xa30`\xaa@'
p49
tp50
Rp51
ssI5000
(dp52
g5
F3381.6754
sg6
F360.0
sg7
g8
(g12
S'p_\x07\xceYk\xaa@'
p53
tp54
Rp55
ssI500
(dp56
g5
F3501.462
sg6
F439.0
sg7
g8
(g12
S'\x81\x95C\x8b\xecZ\xab@'
p57
tp58
Rp59
ssg35
I10
sg36
g37
sa.