(lp0
(dp1
S'sketch'
p2
S'cs'
p3
sI100
(dp4
S'top_sum'
p5
F0.5115695743910126
sS'top_medium'
p6
F0.9996068650518062
sS'top_mean'
p7
cnumpy.core.multiarray
scalar
p8
(cnumpy
dtype
p9
(S'f8'
p10
I0
I1
tp11
Rp12
(I3
S'<'
p13
NNNI-1
I-1
I0
tp14
bS'\x9d\x14\x0c\x86\x96\xd6\xe3?'
p15
tp16
Rp17
ssI1000
(dp18
g5
F0.540529821088324
sg6
F0.9958682840118545
sg7
g8
(g12
S'N\xde\xd4\xee~\xb9\xe3?'
p19
tp20
Rp21
ssS'h'
p22
I1000
sI2000
(dp23
g5
F0.5458388534652626
sg6
F0.9917347180672407
sg7
g8
(g12
S'K\x93\x81\xcb_\x8c\xe3?'
p24
tp25
Rp26
ssI5000
(dp27
g5
F0.5498355910364956
sg6
F0.9789446399416782
sg7
g8
(g12
S'\xee\x98\xe1&\xe9.\xe3?'
p28
tp29
Rp30
ssI500
(dp31
g5
F0.5330971260529568
sg6
F0.9979778354200384
sg7
g8
(g12
S'\x97\xd1\x7f:\xcfr\xe3?'
p32
tp33
Rp34
ssS'w'
p35
I10
sS'ds'
p36
S'comp1'
p37
sa(dp38
g2
S'gm'
p39
sI100
(dp40
g5
F0.511571531704085
sg6
F0.9996256228906729
sg7
g8
(g12
S'\xa4\xea\xd1C\x9e\xd6\xe3?'
p41
tp42
Rp43
ssI1000
(dp44
g5
F0.5405216647770187
sg6
F0.9955810986856066
sg7
g8
(g12
S'0\xb5\xa0\x008\xb9\xe3?'
p45
tp46
Rp47
ssg22
I1000
sI2000
(dp48
g5
F0.5458304798381696
sg6
F0.9913579765771945
sg7
g8
(g12
S'\xdd\xb0;+:\x8c\xe3?'
p49
tp50
Rp51
ssI5000
(dp52
g5
F0.5498058032402982
sg6
F0.9781201613687376
sg7
g8
(g12
S'\xff\x15\x05\x8ec-\xe3?'
p53
tp54
Rp55
ssI500
(dp56
g5
F0.5330936452552852
sg6
F0.9979022572279851
sg7
g8
(g12
S'F\x94h\xd6\xb7r\xe3?'
p57
tp58
Rp59
ssg35
I10
sg36
g37
sa.