(lp0
(dp1
S'sketch'
p2
S'cs'
p3
sI100
(dp4
S'top_sum'
p5
F0.5237039563437926
sS'top_medium'
p6
F0.8377348142054024
sS'top_mean'
p7
cnumpy.core.multiarray
scalar
p8
(cnumpy
dtype
p9
(S'f8'
p10
I0
I1
tp11
Rp12
(I3
S'<'
p13
NNNI-1
I-1
I0
tp14
bS';\x86\x19^\x13V\xe3?'
p15
tp16
Rp17
ssI1000
(dp18
g5
F0.5554405164194843
sg6
F0.8290465485321343
sg7
g8
(g12
S'\x90\xfcL\x05\x1aP\xe2?'
p19
tp20
Rp21
ssS'h'
p22
I1000
sI2000
(dp23
g5
F0.5653230709668272
sg6
F0.8274479397430217
sg7
g8
(g12
S'u\xba\x0c\x96\x92H\xe2?'
p24
tp25
Rp26
ssI5000
(dp27
g5
F0.5786745353660225
sg6
F0.8298969072164949
sg7
g8
(g12
S'D\xbb\x8fs\xcc\x8e\xe2?'
p28
tp29
Rp30
ssI500
(dp31
g5
F0.5310182178623919
sg6
F0.8235294117647058
sg7
g8
(g12
S'd\xb1\x1b\xb6\xf2\xcb\xe1?'
p32
tp33
Rp34
ssS'w'
p35
I10
sS'ds'
p36
S'tweet'
p37
sa(dp38
g2
S'gm'
p39
sI100
(dp40
g5
F0.5177840576885597
sg6
F0.8341777630674441
sg7
g8
(g12
S'\xd1\xa6\x85s\x17\xe6\xe2?'
p41
tp42
Rp43
ssI1000
(dp44
g5
F0.5538888539825547
sg6
F0.8261890181669729
sg7
g8
(g12
S'\xee\xc4\x90\xc9\xacG\xe2?'
p45
tp46
Rp47
ssg22
I1000
sI2000
(dp48
g5
F0.5632332452689236
sg6
F0.8284271408839778
sg7
g8
(g12
S'\xda2m\x94\xbb9\xe2?'
p49
tp50
Rp51
ssI5000
(dp52
g5
F0.578180040929085
sg6
F0.8311111111111111
sg7
g8
(g12
S'v\xc7\xcd\xd2\x8b\x8a\xe2?'
p53
tp54
Rp55
ssI500
(dp56
g5
F0.52605074569049
sg6
F0.8171875
sg7
g8
(g12
S'\xfe!\xb7\x92\x01\x9e\xe1?'
p57
tp58
Rp59
ssg35
I10
sg36
g37
sa.