(lp0
(dp1
S'sketch'
p2
S'cs'
p3
sI100
(dp4
S'top_sum'
p5
F0.5037070109702335
sS'top_medium'
p6
F0.9981510687964078
sS'top_mean'
p7
cnumpy.core.multiarray
scalar
p8
(cnumpy
dtype
p9
(S'f8'
p10
I0
I1
tp11
Rp12
(I3
S'<'
p13
NNNI-1
I-1
I0
tp14
bS'\xd8N\x94\xcf\xd1&\xe4?'
p15
tp16
Rp17
ssI1000
(dp18
g5
F0.5288849804071711
sg6
F0.9792924746414079
sg7
g8
(g12
S'\xd5\x02\xa2\n\xd5\x9d\xe3?'
p19
tp20
Rp21
ssS'h'
p22
I500
sI2000
(dp23
g5
F0.5317840074132991
sg6
F0.9583146292001973
sg7
g8
(g12
S'\x9c\x90\x04\xb1[\xe7\xe2?'
p24
tp25
Rp26
ssI5000
(dp27
g5
F0.5358590515561816
sg6
F0.8952783575004946
sg7
g8
(g12
S't\xb2\xd97>\x9e\xe2?'
p28
tp29
Rp30
ssI500
(dp31
g5
F0.5208715624941043
sg6
F0.9897951093600799
sg7
g8
(g12
S'\xd9\xd4&\xbcyi\xe3?'
p32
tp33
Rp34
ssS'w'
p35
I10
sS'ds'
p36
S'comp1'
p37
sa(dp38
g2
S'gm'
p39
sI100
(dp40
g5
F0.5037087547740624
sg6
F0.998175096721746
sg7
g8
(g12
S'\x18\x96\x95\x00\xd6&\xe4?'
p41
tp42
Rp43
ssI1000
(dp44
g5
F0.528862076297489
sg6
F0.9790560830304685
sg7
g8
(g12
S'\xdcaJ~\xcc\x9c\xe3?'
p45
tp46
Rp47
ssg22
I500
sI2000
(dp48
g5
F0.5317341782045052
sg6
F0.957431504556115
sg7
g8
(g12
S'\x0e#\xf01\xe9\xe4\xe2?'
p49
tp50
Rp51
ssI5000
(dp52
g5
F0.5357440270100956
sg6
F0.8928004954589431
sg7
g8
(g12
S'\xae1\x9d\xa3X\x99\xe2?'
p53
tp54
Rp55
ssI500
(dp56
g5
F0.5208673004538179
sg6
F0.9895568680594373
sg7
g8
(g12
S'\xbe+Khqi\xe3?'
p57
tp58
Rp59
ssg35
I10
sg36
g37
sa.