(lp0
(dp1
S'sketch'
p2
S'cs'
p3
sI100
(dp4
S'top_sum'
p5
F0.5978366790099395
sS'top_medium'
p6
F0.4821584043917774
sS'top_mean'
p7
cnumpy.core.multiarray
scalar
p8
(cnumpy
dtype
p9
(S'f8'
p10
I0
I1
tp11
Rp12
(I3
S'<'
p13
NNNI-1
I-1
I0
tp14
bS'\x91\x1b\xc6\xf3\x87(\xe0?'
p15
tp16
Rp17
ssI1000
(dp18
g5
F0.5037849089900809
sg6
F0.44448373168326927
sg7
g8
(g12
S'\xd7\x80\xbb\xd3)\x1a\xde?'
p19
tp20
Rp21
ssS'h'
p22
I500
sI2000
(dp23
g5
F0.5108294685871797
sg6
F0.45145159781032146
sg7
g8
(g12
S'\xab\x03t\x12B-\xde?'
p24
tp25
Rp26
ssI5000
(dp27
g5
F0.5211981819749982
sg6
F0.46426581930877564
sg7
g8
(g12
S'\xaa\xa0\x8e\x97\x90\xba\xde?'
p28
tp29
Rp30
ssI500
(dp31
g5
F0.5026261521459252
sg6
F0.4606325075075075
sg7
g8
(g12
S'>\xb5\xe4\x19\xb4c\xde?'
p32
tp33
Rp34
ssS'w'
p35
I10
sS'ds'
p36
S'tweet'
p37
sa(dp38
g2
S'gm'
p39
sI100
(dp40
g5
F0.5872149678425258
sg6
F0.4955197132616488
sg7
g8
(g12
S'\xc5?\x8bL\x00\xb7\xdf?'
p41
tp42
Rp43
ssI1000
(dp44
g5
F0.5072952720736275
sg6
F0.44513888888888886
sg7
g8
(g12
S'L\xac\x97\xe3O\xad\xde?'
p45
tp46
Rp47
ssg22
I500
sI2000
(dp48
g5
F0.5171630173102457
sg6
F0.4589504294312572
sg7
g8
(g12
S'yO[4.\xf4\xde?'
p49
tp50
Rp51
ssI5000
(dp52
g5
F0.530718506689527
sg6
F0.47454928209003566
sg7
g8
(g12
S'\x19h\x11Bh\xd6\xdf?'
p53
tp54
Rp55
ssI500
(dp56
g5
F0.5063973294140434
sg6
F0.45899250251112067
sg7
g8
(g12
S'\xb6\x8d\xa3\x947\xea\xde?'
p57
tp58
Rp59
ssg35
I10
sg36
g37
sa.