(lp0
(dp1
S'sketch'
p2
S'cs'
p3
sI100
(dp4
S'top_sum'
p5
F1.0523289807055154
sS'top_medium'
p6
F1.413708307252079
sS'top_mean'
p7
cnumpy.core.multiarray
scalar
p8
(cnumpy
dtype
p9
(S'f8'
p10
I0
I1
tp11
Rp12
(I3
S'<'
p13
NNNI-1
I-1
I0
tp14
bS'Q]>Hkq\xf6?'
p15
tp16
Rp17
ssI1000
(dp18
g5
F1.0545759016989065
sg6
F1.3825525525525526
sg7
g8
(g12
S'\xb5\xaa\x1a\x9e\xe9r\xf6?'
p19
tp20
Rp21
ssS'h'
p22
I300
sI2000
(dp23
g5
F1.0511959583070913
sg6
F1.3553943612403707
sg7
g8
(g12
S'\xb8\xdd\xaf\x1ac\x18\xf6?'
p24
tp25
Rp26
ssI5000
(dp27
g5
F1.017867139903767
sg6
F1.354383985084147
sg7
g8
(g12
S'ug\x16\x96\xd8\x03\xf6?'
p28
tp29
Rp30
ssI500
(dp31
g5
F1.1258217406660513
sg6
F1.4221390996895482
sg7
g8
(g12
S'V\xb1KMo\xfd\xf6?'
p32
tp33
Rp34
ssS'w'
p35
I10
sS'ds'
p36
S'tweet'
p37
sa(dp38
g2
S'gm'
p39
sI100
(dp40
g5
F1.0582488793607483
sg6
F1.3446261137286002
sg7
g8
(g12
S'sr!\x90Jv\xf6?'
p41
tp42
Rp43
ssI1000
(dp44
g5
F1.0442305748526877
sg6
F1.2955362761844826
sg7
g8
(g12
S'`\xd1\xc9-c\r\xf6?'
p45
tp46
Rp47
ssg22
I300
sI2000
(dp48
g5
F1.0324134283229318
sg6
F1.2789053426248547
sg7
g8
(g12
S'V%\x87\xba\x19\x8b\xf5?'
p49
tp50
Rp51
ssI5000
(dp52
g5
F1.003479756307287
sg6
F1.283595394329578
sg7
g8
(g12
S't\x08\xd8#\xa9\x8d\xf5?'
p53
tp54
Rp55
ssI500
(dp56
g5
F1.1123434847500884
sg6
F1.3114224137931034
sg7
g8
(g12
S'T Cla\x87\xf6?'
p57
tp58
Rp59
ssg35
I10
sg36
g37
sa.