(lp0
(dp1
S'sketch'
p2
S'cs'
p3
sI100
(dp4
S'top_sum'
p5
F0.6978487436140345
sS'top_medium'
p6
F0.994234679424216
sS'top_mean'
p7
cnumpy.core.multiarray
scalar
p8
(cnumpy
dtype
p9
(S'f8'
p10
I0
I1
tp11
Rp12
(I3
S'<'
p13
NNNI-1
I-1
I0
tp14
bS'\xac\xfa\xa8\xfe\xd9\x1f\xe4?'
p15
tp16
Rp17
ssI1000
(dp18
g5
F0.6807153068750743
sg6
F0.9360956238307923
sg7
g8
(g12
S'D\xf9Kc\x81\x9d\xe3?'
p19
tp20
Rp21
ssS'h'
p22
I300
sI2000
(dp23
g5
F0.6727386930199283
sg6
F0.8722957624389804
sg7
g8
(g12
S'\x11\x956u\xe6\x03\xe3?'
p24
tp25
Rp26
ssI5000
(dp27
g5
F0.6613119336982576
sg6
F0.6755745105834292
sg7
g8
(g12
S'\xabwLIW\x04\xe2?'
p28
tp29
Rp30
ssI500
(dp31
g5
F0.6892911299810618
sg6
F0.9695482077016491
sg7
g8
(g12
S'f\xcaI\xc4\xacn\xe4?'
p32
tp33
Rp34
ssS'w'
p35
I10
sS'ds'
p36
S'comp1'
p37
sa(dp38
g2
S'gm'
p39
sI100
(dp40
g5
F0.6978253533267481
sg6
F0.9942771470482825
sg7
g8
(g12
S'V\x8f\x86\x9d\xa0\x1f\xe4?'
p41
tp42
Rp43
ssI1000
(dp44
g5
F0.6806186890264104
sg6
F0.935182915841994
sg7
g8
(g12
S'\xe1]\xf9Jy\x99\xe3?'
p45
tp46
Rp47
ssg22
I300
sI2000
(dp48
g5
F0.6726194961931337
sg6
F0.8723437876686155
sg7
g8
(g12
S'a\xfe\xf6c<\x00\xe3?'
p49
tp50
Rp51
ssI5000
(dp52
g5
F0.661082646627219
sg6
F0.67144168237628
sg7
g8
(g12
S'e\x06\xf0\xce\x98\xfa\xe1?'
p53
tp54
Rp55
ssI500
(dp56
g5
F0.6892549818125722
sg6
F0.969798436740373
sg7
g8
(g12
S'}\x9f\xc7&\x95m\xe4?'
p57
tp58
Rp59
ssg35
I10
sg36
g37
sa.